target datalayout = "e-m:e-p270:32:32-p271:32:32-p272:64:64-i64:64-i128:128-f80:128-n8:16:32:64-S128"
target triple = "x86_64-pc-linux-gnu"

@hf_mikey = internal global [71 x i32] zeroinitializer, align 16

; Function Attrs: null_pointer_is_valid sspstrong uwtable
define internal i32 @dissect_payload_dh(ptr noundef %0, ptr noundef %1, ptr noundef %2, ptr noundef %3) #0 {
  %5 = alloca i32, align 4
  %6 = alloca ptr, align 8
  %7 = alloca ptr, align 8
  %8 = alloca ptr, align 8
  %9 = alloca ptr, align 8
  %10 = alloca i32, align 4
  %11 = alloca i8, align 1
  %12 = alloca i32, align 4
  %13 = alloca i8, align 1
  %14 = alloca i32, align 4
  store ptr %0, ptr %6, align 8
  store ptr %1, ptr %7, align 8
  store ptr %2, ptr %8, align 8
  store ptr %3, ptr %9, align 8
  call void @llvm.lifetime.start.p0(i64 4, ptr %10) #5
  store i32 0, ptr %10, align 4
  call void @llvm.lifetime.start.p0(i64 1, ptr %11) #5
  call void @llvm.lifetime.start.p0(i64 4, ptr %12) #5
  call void @llvm.lifetime.start.p0(i64 1, ptr %13) #5
  %15 = load ptr, ptr %7, align 8
  %16 = load i32, ptr %10, align 4
  %17 = add i32 %16, 1
  %18 = call zeroext i8 @tvb_get_uint8(ptr noundef %15, i32 noundef %17)
  store i8 %18, ptr %11, align 1
  %19 = load i8, ptr %11, align 1
  %20 = zext i8 %19 to i32
  switch i32 %20, label %24 [
    i32 0, label %21
    i32 1, label %22
    i32 2, label %23
  ]

21:                                               ; preds = %4
  store i32 192, ptr %12, align 4
  br label %25

22:                                               ; preds = %4
  store i32 96, ptr %12, align 4
  br label %25

23:                                               ; preds = %4
  store i32 128, ptr %12, align 4
  br label %25

24:                                               ; preds = %4
  store i32 0, ptr %5, align 4
  store i32 1, ptr %14, align 4
  br label %68

25:                                               ; preds = %23, %22, %21
  %26 = load ptr, ptr %7, align 8
  %27 = load i32, ptr %10, align 4
  %28 = add i32 %27, 2
  %29 = load i32, ptr %12, align 4
  %30 = add i32 %28, %29
  %31 = call zeroext i8 @tvb_get_uint8(ptr noundef %26, i32 noundef %30)
  %32 = zext i8 %31 to i32
  %33 = and i32 %32, 15
  %34 = trunc i32 %33 to i8
  store i8 %34, ptr %13, align 1
  %35 = load ptr, ptr %9, align 8
  %36 = icmp ne ptr %35, null
  br i1 %36, label %37, label %59

37:                                               ; preds = %25
  %38 = load ptr, ptr %9, align 8
  %39 = load i32, ptr getelementptr ([71 x i32], ptr @hf_mikey, i64 0, i64 19), align 4
  %40 = load ptr, ptr %7, align 8
  %41 = call ptr @proto_tree_add_item(ptr noundef %38, i32 noundef %39, ptr noundef %40, i32 noundef 1, i32 noundef 1, i32 noundef 0)
  %42 = load ptr, ptr %9, align 8
  %43 = load i32, ptr getelementptr ([71 x i32], ptr @hf_mikey, i64 0, i64 20), align 16
  %44 = load ptr, ptr %7, align 8
  %45 = load i32, ptr %12, align 4
  %46 = call ptr @proto_tree_add_item(ptr noundef %42, i32 noundef %43, ptr noundef %44, i32 noundef 2, i32 noundef %45, i32 noundef 0)
  %47 = load ptr, ptr %9, align 8
  %48 = load i32, ptr getelementptr ([71 x i32], ptr @hf_mikey, i64 0, i64 21), align 4
  %49 = load ptr, ptr %7, align 8
  %50 = load i32, ptr %12, align 4
  %51 = add i32 2, %50
  %52 = call ptr @proto_tree_add_item(ptr noundef %47, i32 noundef %48, ptr noundef %49, i32 noundef %51, i32 noundef 1, i32 noundef 0)
  %53 = load ptr, ptr %9, align 8
  %54 = load i32, ptr getelementptr ([71 x i32], ptr @hf_mikey, i64 0, i64 22), align 8
  %55 = load ptr, ptr %7, align 8
  %56 = load i32, ptr %12, align 4
  %57 = add i32 2, %56
  %58 = call ptr @proto_tree_add_item(ptr noundef %53, i32 noundef %54, ptr noundef %55, i32 noundef %57, i32 noundef 1, i32 noundef 0)
  br label %59

59:                                               ; preds = %37, %25
  %60 = load i8, ptr %13, align 1
  %61 = zext i8 %60 to i32
  %62 = icmp ne i32 %61, 0
  br i1 %62, label %63, label %64

63:                                               ; preds = %59
  store i32 0, ptr %5, align 4
  store i32 1, ptr %14, align 4
  br label %68

64:                                               ; preds = %59
  %65 = load i32, ptr %12, align 4
  %66 = add i32 2, %65
  %67 = add i32 %66, 1
  store i32 %67, ptr %5, align 4
  store i32 1, ptr %14, align 4
  br label %68

68:                                               ; preds = %64, %63, %24
  call void @llvm.lifetime.end.p0(i64 1, ptr %13) #5
  call void @llvm.lifetime.end.p0(i64 4, ptr %12) #5
  call void @llvm.lifetime.end.p0(i64 1, ptr %11) #5
  call void @llvm.lifetime.end.p0(i64 4, ptr %10) #5
  %69 = load i32, ptr %5, align 4
  ret i32 %69
}