; Function Attrs: null_pointer_is_valid sspstrong uwtable
define internal range(i32 0, 196) i32 @dissect_payload_dh(ptr readnone captures(none) %0, ptr noundef %1, ptr readnone captures(none) %2, ptr noundef %3) #0 {
  %5 = tail call zeroext i8 @tvb_get_uint8(ptr noundef %1, i32 noundef 1)
  %6 = icmp ult i8 %5, 3
  br i1 %6, label %switch.lookup, label %22

switch.lookup:                                    ; preds = %4
  %7 = zext nneg i8 %5 to i64
  %switch.gep = getelementptr inbounds nuw [3 x i32], ptr @switch.table.dissect_payload_dh, i64 0, i64 %7
  %switch.load = load i32, ptr %switch.gep, align 4
  %8 = or disjoint i32 %switch.load, 2
  %9 = tail call zeroext i8 @tvb_get_uint8(ptr noundef %1, i32 noundef %8)
  %10 = and i8 %9, 15
  %.not = icmp eq ptr %3, null
  br i1 %.not, label %20, label %11

11:                                               ; preds = %switch.lookup
  %12 = load i32, ptr getelementptr inbounds nuw (i8, ptr @hf_mikey, i64 76), align 4
  %13 = tail call ptr @proto_tree_add_item(ptr noundef nonnull %3, i32 noundef %12, ptr noundef %1, i32 noundef 1, i32 noundef 1, i32 noundef 0)
  %14 = load i32, ptr getelementptr inbounds nuw (i8, ptr @hf_mikey, i64 80), align 16
  %15 = tail call ptr @proto_tree_add_item(ptr noundef nonnull %3, i32 noundef %14, ptr noundef %1, i32 noundef 2, i32 noundef %switch.load, i32 noundef 0)
  %16 = load i32, ptr getelementptr inbounds nuw (i8, ptr @hf_mikey, i64 84), align 4
  %17 = tail call ptr @proto_tree_add_item(ptr noundef nonnull %3, i32 noundef %16, ptr noundef %1, i32 noundef %8, i32 noundef 1, i32 noundef 0)
  %18 = load i32, ptr getelementptr inbounds nuw (i8, ptr @hf_mikey, i64 88), align 8
  %19 = tail call ptr @proto_tree_add_item(ptr noundef nonnull %3, i32 noundef %18, ptr noundef %1, i32 noundef %8, i32 noundef 1, i32 noundef 0)
  br label %20

20:                                               ; preds = %11, %switch.lookup
  %.not22 = icmp eq i8 %10, 0
  %21 = or disjoint i32 %switch.load, 3
  %spec.select = select i1 %.not22, i32 %21, i32 0
  br label %22

22:                                               ; preds = %4, %20
  %.0 = phi i32 [ 0, %4 ], [ %spec.select, %20 ]
  ret i32 %.0
}